Certificate:
    Data:
        Version: 3 (0x2)
        Serial Number:
            e1:b6:78:4b:d8:0a:8e:df:02:a1:5c:a6:de:c4:7a:d6
        Signature Algorithm: ecdsa-with-SHA256
        Issuer: C=IL, ST=Gush Dan, L=Tel Aviv, O=Scribe Security, OU=R&D, CN=Scribe Security Root CA/emailAddress=noreply@scribesecutiry.com
        Validity
            Not Before: Oct 11 07:22:05 2023 GMT
            Not After : Oct  8 07:22:05 2033 GMT
        Subject: C=IL, ST=Gush Dan, L=Tel Aviv, O=Scribe Security, OU=R&D, CN=Scribe Security Test Intermediate CA/emailAddress=noreply@scribesecutiry.com
        Subject Public Key Info:
            Public Key Algorithm: id-ecPublicKey
                Public-Key: (256 bit)
                pub:
                    04:6a:db:93:48:cd:6e:52:0c:94:ff:44:7f:b2:c5:
                    33:a1:ba:a6:40:c9:ee:42:c3:cd:f1:8f:e3:7d:2f:
                    8c:07:66:91:27:07:c7:ab:0c:9d:bf:d0:d1:3f:2c:
                    6a:23:28:5d:e8:31:77:e5:ee:dd:83:49:31:4f:f5:
                    94:25:a4:e9:11
                ASN1 OID: prime256v1
                NIST CURVE: P-256
        X509v3 extensions:
            X509v3 Basic Constraints: critical
                CA:TRUE, pathlen:0
            X509v3 Subject Key Identifier: 
                72:43:BE:B5:8F:E1:31:B4:66:69:80:E4:F7:89:B3:A7:91:5D:25:19
            X509v3 Authority Key Identifier: 
                keyid:19:B7:05:2E:87:06:B6:B6:83:8E:ED:AF:55:C3:B6:CE:32:EB:D1:8E
                DirName:/C=IL/ST=Gush Dan/L=Tel Aviv/O=Scribe Security/OU=R&D/CN=Scribe Security Root CA/emailAddress=noreply@scribesecutiry.com
                serial:19:0E:9C:E5:A2:AB:FB:BD:6F:18:98:69:F7:FF:81:BA:06:EB:57:3B
            X509v3 Key Usage: critical
                Digital Signature, Certificate Sign, CRL Sign
            X509v3 CRL Distribution Points: 
                Full Name:
                  URI:https://raw.githubusercontent.com/scribe-public/scribe-ca/main/root.crl
    Signature Algorithm: ecdsa-with-SHA256
    Signature Value:
        30:44:02:20:0f:fa:59:d3:e9:c5:59:3b:0a:28:c8:7d:ed:4a:
        e3:1d:a7:54:12:58:8e:c6:da:6b:1f:f9:ec:64:27:3b:cd:3f:
        02:20:15:42:ec:1c:b1:91:1a:c1:90:c6:4a:b9:43:84:66:d1:
        17:fe:6f:f4:e1:1d:54:3a:fa:10:ee:fc:52:6d:19:ec
-----BEGIN CERTIFICATE-----
MIID6zCCA5KgAwIBAgIRAOG2eEvYCo7fAqFcpt7EetYwCgYIKoZIzj0EAwIwgagx
CzAJBgNVBAYTAklMMREwDwYDVQQIDAhHdXNoIERhbjERMA8GA1UEBwwIVGVsIEF2
aXYxGDAWBgNVBAoMD1NjcmliZSBTZWN1cml0eTEMMAoGA1UECwwDUiZEMSAwHgYD
VQQDDBdTY3JpYmUgU2VjdXJpdHkgUm9vdCBDQTEpMCcGCSqGSIb3DQEJARYabm9y
ZXBseUBzY3JpYmVzZWN1dGlyeS5jb20wHhcNMjMxMDExMDcyMjA1WhcNMzMxMDA4
MDcyMjA1WjCBtTELMAkGA1UEBhMCSUwxETAPBgNVBAgMCEd1c2ggRGFuMREwDwYD
VQQHDAhUZWwgQXZpdjEYMBYGA1UECgwPU2NyaWJlIFNlY3VyaXR5MQwwCgYDVQQL
DANSJkQxLTArBgNVBAMMJFNjcmliZSBTZWN1cml0eSBUZXN0IEludGVybWVkaWF0
ZSBDQTEpMCcGCSqGSIb3DQEJARYabm9yZXBseUBzY3JpYmVzZWN1dGlyeS5jb20w
WTATBgcqhkjOPQIBBggqhkjOPQMBBwNCAARq25NIzW5SDJT/RH+yxTOhuqZAye5C
w83xj+N9L4wHZpEnB8erDJ2/0NE/LGojKF3oMXfl7t2DSTFP9ZQlpOkRo4IBjDCC
AYgwEgYDVR0TAQH/BAgwBgEB/wIBADAdBgNVHQ4EFgQUckO+tY/hMbRmaYDk94mz
p5FdJRkwgegGA1UdIwSB4DCB3YAUGbcFLocGtraDju2vVcO2zjLr0Y6hga6kgasw
gagxCzAJBgNVBAYTAklMMREwDwYDVQQIDAhHdXNoIERhbjERMA8GA1UEBwwIVGVs
IEF2aXYxGDAWBgNVBAoMD1NjcmliZSBTZWN1cml0eTEMMAoGA1UECwwDUiZEMSAw
HgYDVQQDDBdTY3JpYmUgU2VjdXJpdHkgUm9vdCBDQTEpMCcGCSqGSIb3DQEJARYa
bm9yZXBseUBzY3JpYmVzZWN1dGlyeS5jb22CFBkOnOWiq/u9bxiYaff/gboG61c7
MA4GA1UdDwEB/wQEAwIBhjBYBgNVHR8EUTBPME2gS6BJhkdodHRwczovL3Jhdy5n
aXRodWJ1c2VyY29udGVudC5jb20vc2NyaWJlLXB1YmxpYy9zY3JpYmUtY2EvbWFp
bi9yb290LmNybDAKBggqhkjOPQQDAgNHADBEAiAP+lnT6cVZOwooyH3tSuMdp1QS
WI7G2msf+exkJzvNPwIgFULsHLGRGsGQxkq5Q4Rm0Rf+b/ThHVQ6+hDu/FJtGew=
-----END CERTIFICATE-----
-----BEGIN CERTIFICATE-----
MIID4jCCA4igAwIBAgIUGQ6c5aKr+71vGJhp9/+BugbrVzswCgYIKoZIzj0EAwIw
gagxCzAJBgNVBAYTAklMMREwDwYDVQQIDAhHdXNoIERhbjERMA8GA1UEBwwIVGVs
IEF2aXYxGDAWBgNVBAoMD1NjcmliZSBTZWN1cml0eTEMMAoGA1UECwwDUiZEMSAw
HgYDVQQDDBdTY3JpYmUgU2VjdXJpdHkgUm9vdCBDQTEpMCcGCSqGSIb3DQEJARYa
bm9yZXBseUBzY3JpYmVzZWN1dGlyeS5jb20wHhcNMjMxMDEwMTUxNTQxWhcNMzMx
MDA3MTUxNTQxWjCBqDELMAkGA1UEBhMCSUwxETAPBgNVBAgMCEd1c2ggRGFuMREw
DwYDVQQHDAhUZWwgQXZpdjEYMBYGA1UECgwPU2NyaWJlIFNlY3VyaXR5MQwwCgYD
VQQLDANSJkQxIDAeBgNVBAMMF1NjcmliZSBTZWN1cml0eSBSb290IENBMSkwJwYJ
KoZIhvcNAQkBFhpub3JlcGx5QHNjcmliZXNlY3V0aXJ5LmNvbTBZMBMGByqGSM49
AgEGCCqGSM49AwEHA0IABDjuQtkYY2+zPKqr63m3mG/rACFPRVMAZWcSRLHuYUFk
JCu8lhTSvFwGGaGXilJwtG10U7nw8SShtzX6kV9eEy6jggGMMIIBiDASBgNVHRMB
Af8ECDAGAQH/AgEBMB0GA1UdDgQWBBQZtwUuhwa2toOO7a9Vw7bOMuvRjjCB6AYD
VR0jBIHgMIHdgBQZtwUuhwa2toOO7a9Vw7bOMuvRjqGBrqSBqzCBqDELMAkGA1UE
BhMCSUwxETAPBgNVBAgMCEd1c2ggRGFuMREwDwYDVQQHDAhUZWwgQXZpdjEYMBYG
A1UECgwPU2NyaWJlIFNlY3VyaXR5MQwwCgYDVQQLDANSJkQxIDAeBgNVBAMMF1Nj
cmliZSBTZWN1cml0eSBSb290IENBMSkwJwYJKoZIhvcNAQkBFhpub3JlcGx5QHNj
cmliZXNlY3V0aXJ5LmNvbYIUGQ6c5aKr+71vGJhp9/+BugbrVzswDgYDVR0PAQH/
BAQDAgGGMFgGA1UdHwRRME8wTaBLoEmGR2h0dHBzOi8vcmF3LmdpdGh1YnVzZXJj
b250ZW50LmNvbS9zY3JpYmUtcHVibGljL3NjcmliZS1jYS9tYWluL3Jvb3QuY3Js
MAoGCCqGSM49BAMCA0gAMEUCIE4Lyrfxsy+ZpojbCVvy+WcIly9Vlhlh34na1aSg
X9TYAiEAp94RChjlDvxY+/bIF3t4KhSfMmI82bFdzLgZkVJy2jI=
-----END CERTIFICATE-----
-----BEGIN CERTIFICATE-----
MIIDZDCCAwqgAwIBAgIUFPA9Fl72Wo4ocDUNN0R33fzNIFQwCgYIKoZIzj0EAwIw
gZ8xCzAJBgNVBAYTAklMMREwDwYDVQQIDAhHdXNoIERhbjERMA8GA1UEBwwIVGVs
IEF2aXYxGDAWBgNVBAoMD1NjcmliZSBTZWN1cml0eTEMMAoGA1UECwwDUiZEMRcw
FQYDVQQDDA5TY3JpYmUtVGVzdC1DQTEpMCcGCSqGSIb3DQEJARYabm9yZXBseUBz
Y3JpYmVzZWN1dGlyeS5jb20wHhcNMjMwODAxMDkyNDU0WhcNMzMwNzI5MDkyNDU0
WjCBnzELMAkGA1UEBhMCSUwxETAPBgNVBAgMCEd1c2ggRGFuMREwDwYDVQQHDAhU
ZWwgQXZpdjEYMBYGA1UECgwPU2NyaWJlIFNlY3VyaXR5MQwwCgYDVQQLDANSJkQx
FzAVBgNVBAMMDlNjcmliZS1UZXN0LUNBMSkwJwYJKoZIhvcNAQkBFhpub3JlcGx5
QHNjcmliZXNlY3V0aXJ5LmNvbTBZMBMGByqGSM49AgEGCCqGSM49AwEHA0IABEos
fOmiD0Fxz7mB0nB4fWupsjEpO/9R5v3wdN5UlF5zKLBy2cE/arhTFcZTkUpXApq1
5C90maF730GtQMueVTmjggEgMIIBHDAMBgNVHRMEBTADAQH/MB0GA1UdDgQWBBSN
ygxZl4HDuTpluX7VnR2ZoYnI5TCB3wYDVR0jBIHXMIHUgBSNygxZl4HDuTpluX7V
nR2ZoYnI5aGBpaSBojCBnzELMAkGA1UEBhMCSUwxETAPBgNVBAgMCEd1c2ggRGFu
MREwDwYDVQQHDAhUZWwgQXZpdjEYMBYGA1UECgwPU2NyaWJlIFNlY3VyaXR5MQww
CgYDVQQLDANSJkQxFzAVBgNVBAMMDlNjcmliZS1UZXN0LUNBMSkwJwYJKoZIhvcN
AQkBFhpub3JlcGx5QHNjcmliZXNlY3V0aXJ5LmNvbYIUFPA9Fl72Wo4ocDUNN0R3
3fzNIFQwCwYDVR0PBAQDAgEGMAoGCCqGSM49BAMCA0gAMEUCICH/yoZGGEEdlEaL
KUAM5HjpZuYcS2lQsy6gaV5YMYiUAiEA05fwda4JaGJ+XeyAEOcZByyxs59KjIiz
6uJ65Ku3Rm0=
-----END CERTIFICATE-----
