Certificate:
    Data:
        Version: 3 (0x2)
        Serial Number:
            13:31:71:bf:4f:68:00:cc:df:76:1d:84:59:26:72:4a
        Signature Algorithm: ecdsa-with-SHA256
        Issuer: C=IL, ST=Gush Dan, L=Tel Aviv, O=Scribe Security, OU=R&D, CN=Scribe Security Test Intermediate CA/emailAddress=noreply@scribesecutiry.com
        Validity
            Not Before: Aug  5 09:16:15 2024 GMT
            Not After : Aug  3 09:16:15 2033 GMT
        Subject: C=IL, ST=Gush Dan, L=Tel Aviv, O=Scribe Security, OU=Scribe Security CA, CN=file_key.client.test_client_1.scribesecurity.com/emailAddress=noreply@scribesecutiry.com
        Subject Public Key Info:
            Public Key Algorithm: id-ecPublicKey
                Public-Key: (256 bit)
                pub:
                    04:8d:91:73:1c:f0:94:87:a1:6d:0c:fe:47:46:0e:
                    96:be:5d:a3:4d:8b:3e:cd:8b:99:e5:68:33:9b:ea:
                    5c:22:95:7a:5b:f4:8d:b7:e2:4b:2b:f3:34:1e:50:
                    5b:ef:26:8a:67:44:eb:9c:ad:4e:73:2e:40:a1:30:
                    bd:f9:b0:ca:bd
                ASN1 OID: prime256v1
                NIST CURVE: P-256
        X509v3 extensions:
            X509v3 Basic Constraints: critical
                CA:FALSE
            X509v3 Subject Key Identifier: 
                64:F5:47:4E:2A:DE:61:48:8B:32:5F:FC:25:1C:53:3C:E8:D2:1F:35
            X509v3 Authority Key Identifier: 
                keyid:72:43:BE:B5:8F:E1:31:B4:66:69:80:E4:F7:89:B3:A7:91:5D:25:19
                DirName:/C=IL/ST=Gush Dan/L=Tel Aviv/O=Scribe Security/OU=R&D/CN=Scribe Security Root CA/emailAddress=noreply@scribesecutiry.com
                serial:E1:B6:78:4B:D8:0A:8E:DF:02:A1:5C:A6:DE:C4:7A:D6
            X509v3 Extended Key Usage: 
                Code Signing
            X509v3 Key Usage: 
                Digital Signature
            X509v3 CRL Distribution Points: 
                Full Name:
                  URI:https://raw.githubusercontent.com/scribe-public/scribe-ca/main/scribe_clients.crl
                Full Name:
                  URI:https://raw.githubusercontent.com/scribe-public/scribe-ca/main/test.crl
    Signature Algorithm: ecdsa-with-SHA256
    Signature Value:
        30:45:02:21:00:98:6a:a2:6c:a6:24:9c:21:96:a4:11:b8:d9:
        69:a1:a9:4b:40:0a:94:0c:f6:0d:17:7f:f1:1a:b8:d2:78:51:
        ab:02:20:57:0c:09:bd:6a:f3:05:84:e6:1c:02:d6:ee:3f:4d:
        db:74:81:2d:e5:74:0c:35:eb:8b:61:23:e7:8a:bf:b8:0d
-----BEGIN CERTIFICATE-----
MIIEeDCCBB6gAwIBAgIQEzFxv09oAMzfdh2EWSZySjAKBggqhkjOPQQDAjCBtTEL
MAkGA1UEBhMCSUwxETAPBgNVBAgMCEd1c2ggRGFuMREwDwYDVQQHDAhUZWwgQXZp
djEYMBYGA1UECgwPU2NyaWJlIFNlY3VyaXR5MQwwCgYDVQQLDANSJkQxLTArBgNV
BAMMJFNjcmliZSBTZWN1cml0eSBUZXN0IEludGVybWVkaWF0ZSBDQTEpMCcGCSqG
SIb3DQEJARYabm9yZXBseUBzY3JpYmVzZWN1dGlyeS5jb20wHhcNMjQwODA1MDkx
NjE1WhcNMzMwODAzMDkxNjE1WjCB0DELMAkGA1UEBhMCSUwxETAPBgNVBAgMCEd1
c2ggRGFuMREwDwYDVQQHDAhUZWwgQXZpdjEYMBYGA1UECgwPU2NyaWJlIFNlY3Vy
aXR5MRswGQYDVQQLDBJTY3JpYmUgU2VjdXJpdHkgQ0ExOTA3BgNVBAMMMGZpbGVf
a2V5LmNsaWVudC50ZXN0X2NsaWVudF8xLnNjcmliZXNlY3VyaXR5LmNvbTEpMCcG
CSqGSIb3DQEJARYabm9yZXBseUBzY3JpYmVzZWN1dGlyeS5jb20wWTATBgcqhkjO
PQIBBggqhkjOPQMBBwNCAASNkXMc8JSHoW0M/kdGDpa+XaNNiz7Ni5nlaDOb6lwi
lXpb9I234ksr8zQeUFvvJopnROucrU5zLkChML35sMq9o4IB8TCCAe0wDAYDVR0T
AQH/BAIwADAdBgNVHQ4EFgQUZPVHTireYUiLMl/8JRxTPOjSHzUwgeUGA1UdIwSB
3TCB2oAUckO+tY/hMbRmaYDk94mzp5FdJRmhga6kgaswgagxCzAJBgNVBAYTAklM
MREwDwYDVQQIDAhHdXNoIERhbjERMA8GA1UEBwwIVGVsIEF2aXYxGDAWBgNVBAoM
D1NjcmliZSBTZWN1cml0eTEMMAoGA1UECwwDUiZEMSAwHgYDVQQDDBdTY3JpYmUg
U2VjdXJpdHkgUm9vdCBDQTEpMCcGCSqGSIb3DQEJARYabm9yZXBseUBzY3JpYmVz
ZWN1dGlyeS5jb22CEQDhtnhL2AqO3wKhXKbexHrWMBMGA1UdJQQMMAoGCCsGAQUF
BwMDMAsGA1UdDwQEAwIHgDCBswYDVR0fBIGrMIGoMFegVaBThlFodHRwczovL3Jh
dy5naXRodWJ1c2VyY29udGVudC5jb20vc2NyaWJlLXB1YmxpYy9zY3JpYmUtY2Ev
bWFpbi9zY3JpYmVfY2xpZW50cy5jcmwwTaBLoEmGR2h0dHBzOi8vcmF3LmdpdGh1
YnVzZXJjb250ZW50LmNvbS9zY3JpYmUtcHVibGljL3NjcmliZS1jYS9tYWluL3Rl
c3QuY3JsMAoGCCqGSM49BAMCA0gAMEUCIQCYaqJspiScIZakEbjZaaGpS0AKlAz2
DRd/8Rq40nhRqwIgVwwJvWrzBYTmHALW7j9N23SBLeV0DDXri2Ej54q/uA0=
-----END CERTIFICATE-----
