Certificate:
    Data:
        Version: 3 (0x2)
        Serial Number:
            45:31:75:69:25:ef:33:a4:ca:2f:b3:41:65:68:43:01
        Signature Algorithm: ecdsa-with-SHA256
        Issuer: C=IL, ST=Gush Dan, L=Tel Aviv, O=Scribe Security, OU=R&D, CN=Scribe-Test-CA/emailAddress=noreply@scribesecutiry.com
        Validity
            Not Before: Sep 28 08:15:48 2023 GMT
            Not After : Sep 27 08:15:48 2026 GMT
        Subject: C=IL, ST=Gush Dan, L=Tel Aviv, O=Scribe Security, OU=R&D, CN=Test28092023/emailAddress=noreply@scribesecutiry.com
        Subject Public Key Info:
            Public Key Algorithm: id-ecPublicKey
                Public-Key: (256 bit)
                pub:
                    04:a0:ec:87:93:00:32:14:ec:3f:a4:7d:2e:35:40:
                    6a:f5:d1:82:dc:65:c7:f7:02:d0:35:6a:06:73:b4:
                    15:49:69:c8:58:f6:72:1b:25:e2:bb:fd:f8:67:38:
                    db:d0:c0:9e:13:84:87:66:23:44:39:37:06:e6:49:
                    66:34:6a:18:4f
                ASN1 OID: prime256v1
                NIST CURVE: P-256
        X509v3 extensions:
            X509v3 Basic Constraints: 
                CA:FALSE
            X509v3 Subject Key Identifier: 
                E8:B8:7C:7A:05:0A:4C:09:2B:48:FB:01:7C:9B:7B:6B:F5:9B:91:70
            X509v3 Authority Key Identifier: 
                keyid:8D:CA:0C:59:97:81:C3:B9:3A:65:B9:7E:D5:9D:1D:99:A1:89:C8:E5
                DirName:/C=IL/ST=Gush Dan/L=Tel Aviv/O=Scribe Security/OU=R&D/CN=Scribe-Test-CA/emailAddress=noreply@scribesecutiry.com
                serial:14:F0:3D:16:5E:F6:5A:8E:28:70:35:0D:37:44:77:DD:FC:CD:20:54
            X509v3 Extended Key Usage: 
                Code Signing
            X509v3 Key Usage: 
                Digital Signature
    Signature Algorithm: ecdsa-with-SHA256
    Signature Value:
        30:46:02:21:00:99:64:04:a8:c1:51:e9:bd:5e:fa:9a:ee:d3:
        53:bd:a3:9c:3b:2c:48:c0:3f:91:10:06:f3:01:54:12:36:36:
        c1:02:21:00:ed:a9:81:c1:1d:5c:3d:7b:8c:03:0e:52:db:39:
        56:a6:bd:ba:dd:df:c6:b1:91:47:27:65:69:52:c7:ab:39:8c
-----BEGIN CERTIFICATE-----
MIIDcTCCAxagAwIBAgIQRTF1aSXvM6TKL7NBZWhDATAKBggqhkjOPQQDAjCBnzEL
MAkGA1UEBhMCSUwxETAPBgNVBAgMCEd1c2ggRGFuMREwDwYDVQQHDAhUZWwgQXZp
djEYMBYGA1UECgwPU2NyaWJlIFNlY3VyaXR5MQwwCgYDVQQLDANSJkQxFzAVBgNV
BAMMDlNjcmliZS1UZXN0LUNBMSkwJwYJKoZIhvcNAQkBFhpub3JlcGx5QHNjcmli
ZXNlY3V0aXJ5LmNvbTAeFw0yMzA5MjgwODE1NDhaFw0yNjA5MjcwODE1NDhaMIGd
MQswCQYDVQQGEwJJTDERMA8GA1UECAwIR3VzaCBEYW4xETAPBgNVBAcMCFRlbCBB
dml2MRgwFgYDVQQKDA9TY3JpYmUgU2VjdXJpdHkxDDAKBgNVBAsMA1ImRDEVMBMG
A1UEAwwMVGVzdDI4MDkyMDIzMSkwJwYJKoZIhvcNAQkBFhpub3JlcGx5QHNjcmli
ZXNlY3V0aXJ5LmNvbTBZMBMGByqGSM49AgEGCCqGSM49AwEHA0IABKDsh5MAMhTs
P6R9LjVAavXRgtxlx/cC0DVqBnO0FUlpyFj2chsl4rv9+Gc429DAnhOEh2YjRDk3
BuZJZjRqGE+jggEyMIIBLjAJBgNVHRMEAjAAMB0GA1UdDgQWBBTouHx6BQpMCStI
+wF8m3tr9ZuRcDCB3wYDVR0jBIHXMIHUgBSNygxZl4HDuTpluX7VnR2ZoYnI5aGB
paSBojCBnzELMAkGA1UEBhMCSUwxETAPBgNVBAgMCEd1c2ggRGFuMREwDwYDVQQH
DAhUZWwgQXZpdjEYMBYGA1UECgwPU2NyaWJlIFNlY3VyaXR5MQwwCgYDVQQLDANS
JkQxFzAVBgNVBAMMDlNjcmliZS1UZXN0LUNBMSkwJwYJKoZIhvcNAQkBFhpub3Jl
cGx5QHNjcmliZXNlY3V0aXJ5LmNvbYIUFPA9Fl72Wo4ocDUNN0R33fzNIFQwEwYD
VR0lBAwwCgYIKwYBBQUHAwMwCwYDVR0PBAQDAgeAMAoGCCqGSM49BAMCA0kAMEYC
IQCZZASowVHpvV76mu7TU72jnDssSMA/kRAG8wFUEjY2wQIhAO2pgcEdXD17jAMO
Uts5Vqa9ut3fxrGRRydlaVLHqzmM
-----END CERTIFICATE-----
