Certificate:
    Data:
        Version: 3 (0x2)
        Serial Number:
            08:30:1f:49:b7:ee:db:bc:0c:05:08:85:a6:c1:61:82
        Signature Algorithm: ecdsa-with-SHA256
        Issuer: C=IL, ST=Gush Dan, L=Tel Aviv, O=Scribe Security, OU=R&D, CN=Scribe Security Root CA/emailAddress=noreply@scribesecutiry.com
        Validity
            Not Before: Oct 10 15:18:24 2023 GMT
            Not After : Oct  7 15:18:24 2033 GMT
        Subject: C=IL, ST=Gush Dan, L=Tel Aviv, O=Scribe Security, OU=R&D, CN=Scribe Security CA/emailAddress=noreply@scribesecutiry.com
        Subject Public Key Info:
            Public Key Algorithm: id-ecPublicKey
                Public-Key: (256 bit)
                pub:
                    04:6b:25:0f:36:5c:6e:32:b5:90:a5:91:e7:8a:61:
                    fe:f5:fd:01:f7:a6:c0:d8:b0:2b:05:9d:a5:c4:30:
                    12:b1:6c:e7:ee:dc:90:5e:a0:7d:bf:09:b8:9c:53:
                    4d:d6:f2:da:70:fe:3a:6c:eb:29:96:94:bc:b3:8a:
                    85:c5:50:44:09
                ASN1 OID: prime256v1
                NIST CURVE: P-256
        X509v3 extensions:
            X509v3 Basic Constraints: critical
                CA:TRUE, pathlen:0
            X509v3 Subject Key Identifier: 
                6A:CF:77:2A:77:4F:89:4D:1C:E5:28:CA:E0:96:87:C3:35:11:36:18
            X509v3 Authority Key Identifier: 
                keyid:19:B7:05:2E:87:06:B6:B6:83:8E:ED:AF:55:C3:B6:CE:32:EB:D1:8E
                DirName:/C=IL/ST=Gush Dan/L=Tel Aviv/O=Scribe Security/OU=R&D/CN=Scribe Security Root CA/emailAddress=noreply@scribesecutiry.com
                serial:19:0E:9C:E5:A2:AB:FB:BD:6F:18:98:69:F7:FF:81:BA:06:EB:57:3B
            X509v3 Key Usage: critical
                Digital Signature, Certificate Sign, CRL Sign
            X509v3 CRL Distribution Points: 
                Full Name:
                  URI:https://raw.githubusercontent.com/scribe-public/scribe-ca/main/root.crl
    Signature Algorithm: ecdsa-with-SHA256
    Signature Value:
        30:46:02:21:00:a4:25:a6:2d:ae:91:23:2c:57:f3:47:7b:06:
        d9:9b:f0:de:02:5a:fe:04:86:64:f1:10:19:07:5f:2b:e6:07:
        ea:02:21:00:ae:3e:8c:48:41:0e:9a:a8:7a:f2:82:18:35:65:
        45:c9:ec:c7:bf:70:9c:78:e3:70:50:f0:fa:71:93:11:ea:7e
-----BEGIN CERTIFICATE-----
MIID2jCCA3+gAwIBAgIQCDAfSbfu27wMBQiFpsFhgjAKBggqhkjOPQQDAjCBqDEL
MAkGA1UEBhMCSUwxETAPBgNVBAgMCEd1c2ggRGFuMREwDwYDVQQHDAhUZWwgQXZp
djEYMBYGA1UECgwPU2NyaWJlIFNlY3VyaXR5MQwwCgYDVQQLDANSJkQxIDAeBgNV
BAMMF1NjcmliZSBTZWN1cml0eSBSb290IENBMSkwJwYJKoZIhvcNAQkBFhpub3Jl
cGx5QHNjcmliZXNlY3V0aXJ5LmNvbTAeFw0yMzEwMTAxNTE4MjRaFw0zMzEwMDcx
NTE4MjRaMIGjMQswCQYDVQQGEwJJTDERMA8GA1UECAwIR3VzaCBEYW4xETAPBgNV
BAcMCFRlbCBBdml2MRgwFgYDVQQKDA9TY3JpYmUgU2VjdXJpdHkxDDAKBgNVBAsM
A1ImRDEbMBkGA1UEAwwSU2NyaWJlIFNlY3VyaXR5IENBMSkwJwYJKoZIhvcNAQkB
Fhpub3JlcGx5QHNjcmliZXNlY3V0aXJ5LmNvbTBZMBMGByqGSM49AgEGCCqGSM49
AwEHA0IABGslDzZcbjK1kKWR54ph/vX9AfemwNiwKwWdpcQwErFs5+7ckF6gfb8J
uJxTTdby2nD+OmzrKZaUvLOKhcVQRAmjggGMMIIBiDASBgNVHRMBAf8ECDAGAQH/
AgEAMB0GA1UdDgQWBBRqz3cqd0+JTRzlKMrglofDNRE2GDCB6AYDVR0jBIHgMIHd
gBQZtwUuhwa2toOO7a9Vw7bOMuvRjqGBrqSBqzCBqDELMAkGA1UEBhMCSUwxETAP
BgNVBAgMCEd1c2ggRGFuMREwDwYDVQQHDAhUZWwgQXZpdjEYMBYGA1UECgwPU2Ny
aWJlIFNlY3VyaXR5MQwwCgYDVQQLDANSJkQxIDAeBgNVBAMMF1NjcmliZSBTZWN1
cml0eSBSb290IENBMSkwJwYJKoZIhvcNAQkBFhpub3JlcGx5QHNjcmliZXNlY3V0
aXJ5LmNvbYIUGQ6c5aKr+71vGJhp9/+BugbrVzswDgYDVR0PAQH/BAQDAgGGMFgG
A1UdHwRRME8wTaBLoEmGR2h0dHBzOi8vcmF3LmdpdGh1YnVzZXJjb250ZW50LmNv
bS9zY3JpYmUtcHVibGljL3NjcmliZS1jYS9tYWluL3Jvb3QuY3JsMAoGCCqGSM49
BAMCA0kAMEYCIQCkJaYtrpEjLFfzR3sG2Zvw3gJa/gSGZPEQGQdfK+YH6gIhAK4+
jEhBDpqoevKCGDVlRcnsx79wnHjjcFDw+nGTEep+
-----END CERTIFICATE-----
-----BEGIN CERTIFICATE-----
MIID4jCCA4igAwIBAgIUGQ6c5aKr+71vGJhp9/+BugbrVzswCgYIKoZIzj0EAwIw
gagxCzAJBgNVBAYTAklMMREwDwYDVQQIDAhHdXNoIERhbjERMA8GA1UEBwwIVGVs
IEF2aXYxGDAWBgNVBAoMD1NjcmliZSBTZWN1cml0eTEMMAoGA1UECwwDUiZEMSAw
HgYDVQQDDBdTY3JpYmUgU2VjdXJpdHkgUm9vdCBDQTEpMCcGCSqGSIb3DQEJARYa
bm9yZXBseUBzY3JpYmVzZWN1dGlyeS5jb20wHhcNMjMxMDEwMTUxNTQxWhcNMzMx
MDA3MTUxNTQxWjCBqDELMAkGA1UEBhMCSUwxETAPBgNVBAgMCEd1c2ggRGFuMREw
DwYDVQQHDAhUZWwgQXZpdjEYMBYGA1UECgwPU2NyaWJlIFNlY3VyaXR5MQwwCgYD
VQQLDANSJkQxIDAeBgNVBAMMF1NjcmliZSBTZWN1cml0eSBSb290IENBMSkwJwYJ
KoZIhvcNAQkBFhpub3JlcGx5QHNjcmliZXNlY3V0aXJ5LmNvbTBZMBMGByqGSM49
AgEGCCqGSM49AwEHA0IABDjuQtkYY2+zPKqr63m3mG/rACFPRVMAZWcSRLHuYUFk
JCu8lhTSvFwGGaGXilJwtG10U7nw8SShtzX6kV9eEy6jggGMMIIBiDASBgNVHRMB
Af8ECDAGAQH/AgEBMB0GA1UdDgQWBBQZtwUuhwa2toOO7a9Vw7bOMuvRjjCB6AYD
VR0jBIHgMIHdgBQZtwUuhwa2toOO7a9Vw7bOMuvRjqGBrqSBqzCBqDELMAkGA1UE
BhMCSUwxETAPBgNVBAgMCEd1c2ggRGFuMREwDwYDVQQHDAhUZWwgQXZpdjEYMBYG
A1UECgwPU2NyaWJlIFNlY3VyaXR5MQwwCgYDVQQLDANSJkQxIDAeBgNVBAMMF1Nj
cmliZSBTZWN1cml0eSBSb290IENBMSkwJwYJKoZIhvcNAQkBFhpub3JlcGx5QHNj
cmliZXNlY3V0aXJ5LmNvbYIUGQ6c5aKr+71vGJhp9/+BugbrVzswDgYDVR0PAQH/
BAQDAgGGMFgGA1UdHwRRME8wTaBLoEmGR2h0dHBzOi8vcmF3LmdpdGh1YnVzZXJj
b250ZW50LmNvbS9zY3JpYmUtcHVibGljL3NjcmliZS1jYS9tYWluL3Jvb3QuY3Js
MAoGCCqGSM49BAMCA0gAMEUCIE4Lyrfxsy+ZpojbCVvy+WcIly9Vlhlh34na1aSg
X9TYAiEAp94RChjlDvxY+/bIF3t4KhSfMmI82bFdzLgZkVJy2jI=
-----END CERTIFICATE-----
