Certificate:
    Data:
        Version: 3 (0x2)
        Serial Number:
            0e:a5:bc:a2:10:8f:ae:75:b7:74:90:cc:35:f7:15:67
        Signature Algorithm: ecdsa-with-SHA256
        Issuer: C=IL, ST=Gush Dan, L=Tel Aviv, O=Scribe Security, OU=R&D, CN=Scribe Security CA/emailAddress=noreply@scribesecutiry.com
        Validity
            Not Before: Oct 12 13:38:27 2023 GMT
            Not After : Oct 11 13:38:27 2026 GMT
        Subject: C=IL, ST=Gush Dan, L=Tel Aviv, O=Scribe Security, OU=R&D, CN=ValintRevoked/emailAddress=noreply@scribesecutiry.com
        Subject Public Key Info:
            Public Key Algorithm: id-ecPublicKey
                Public-Key: (256 bit)
                pub:
                    04:19:92:bd:0e:82:4d:7c:df:76:68:4d:8d:35:4f:
                    42:95:6e:0b:ec:9e:4d:fe:57:5e:d5:35:39:61:6f:
                    da:e8:1c:d3:1d:6a:cb:3a:9d:fb:7a:6f:fb:28:91:
                    f8:d3:d0:21:e2:e3:9a:5f:d6:b0:6d:9e:eb:b3:bc:
                    26:96:82:9f:3d
                ASN1 OID: prime256v1
                NIST CURVE: P-256
        X509v3 extensions:
            X509v3 Basic Constraints: critical
                CA:FALSE
            X509v3 Subject Key Identifier: 
                B2:B9:D3:61:D5:5B:08:3B:41:46:3F:85:D9:6A:E2:FE:27:7B:FD:22
            X509v3 Authority Key Identifier: 
                keyid:6A:CF:77:2A:77:4F:89:4D:1C:E5:28:CA:E0:96:87:C3:35:11:36:18
                DirName:/C=IL/ST=Gush Dan/L=Tel Aviv/O=Scribe Security/OU=R&D/CN=Scribe Security Root CA/emailAddress=noreply@scribesecutiry.com
                serial:08:30:1F:49:B7:EE:DB:BC:0C:05:08:85:A6:C1:61:82
            X509v3 Extended Key Usage: 
                Code Signing
            X509v3 Key Usage: 
                Digital Signature
            X509v3 CRL Distribution Points: 
                Full Name:
                  URI:https://raw.githubusercontent.com/scribe-public/scribe-ca/main/scribe_clients.crl
                Full Name:
                  URI:https://raw.githubusercontent.com/scribe-public/scribe-ca/main/test.crl
    Signature Algorithm: ecdsa-with-SHA256
    Signature Value:
        30:45:02:20:2f:05:d0:bc:3e:c1:29:e5:05:4d:44:b9:09:a8:
        bf:c3:d1:11:12:d4:a9:00:97:e8:76:2a:ab:03:a4:79:48:40:
        02:21:00:b8:17:18:2d:e0:cd:06:fa:31:d0:95:88:b1:55:79:
        f3:e2:8d:c9:a3:58:c4:79:0b:41:e0:78:d6:a9:44:1f:32
-----BEGIN CERTIFICATE-----
MIIEMzCCA9mgAwIBAgIQDqW8ohCPrnW3dJDMNfcVZzAKBggqhkjOPQQDAjCBozEL
MAkGA1UEBhMCSUwxETAPBgNVBAgMCEd1c2ggRGFuMREwDwYDVQQHDAhUZWwgQXZp
djEYMBYGA1UECgwPU2NyaWJlIFNlY3VyaXR5MQwwCgYDVQQLDANSJkQxGzAZBgNV
BAMMElNjcmliZSBTZWN1cml0eSBDQTEpMCcGCSqGSIb3DQEJARYabm9yZXBseUBz
Y3JpYmVzZWN1dGlyeS5jb20wHhcNMjMxMDEyMTMzODI3WhcNMjYxMDExMTMzODI3
WjCBnjELMAkGA1UEBhMCSUwxETAPBgNVBAgMCEd1c2ggRGFuMREwDwYDVQQHDAhU
ZWwgQXZpdjEYMBYGA1UECgwPU2NyaWJlIFNlY3VyaXR5MQwwCgYDVQQLDANSJkQx
FjAUBgNVBAMMDVZhbGludFJldm9rZWQxKTAnBgkqhkiG9w0BCQEWGm5vcmVwbHlA
c2NyaWJlc2VjdXRpcnkuY29tMFkwEwYHKoZIzj0CAQYIKoZIzj0DAQcDQgAEGZK9
DoJNfN92aE2NNU9ClW4L7J5N/lde1TU5YW/a6BzTHWrLOp37em/7KJH409Ah4uOa
X9awbZ7rs7wmloKfPaOCAfAwggHsMAwGA1UdEwEB/wQCMAAwHQYDVR0OBBYEFLK5
02HVWwg7QUY/hdlq4v4ne/0iMIHkBgNVHSMEgdwwgdmAFGrPdyp3T4lNHOUoyuCW
h8M1ETYYoYGupIGrMIGoMQswCQYDVQQGEwJJTDERMA8GA1UECAwIR3VzaCBEYW4x
ETAPBgNVBAcMCFRlbCBBdml2MRgwFgYDVQQKDA9TY3JpYmUgU2VjdXJpdHkxDDAK
BgNVBAsMA1ImRDEgMB4GA1UEAwwXU2NyaWJlIFNlY3VyaXR5IFJvb3QgQ0ExKTAn
BgkqhkiG9w0BCQEWGm5vcmVwbHlAc2NyaWJlc2VjdXRpcnkuY29tghAIMB9Jt+7b
vAwFCIWmwWGCMBMGA1UdJQQMMAoGCCsGAQUFBwMDMAsGA1UdDwQEAwIHgDCBswYD
VR0fBIGrMIGoMFegVaBThlFodHRwczovL3Jhdy5naXRodWJ1c2VyY29udGVudC5j
b20vc2NyaWJlLXB1YmxpYy9zY3JpYmUtY2EvbWFpbi9zY3JpYmVfY2xpZW50cy5j
cmwwTaBLoEmGR2h0dHBzOi8vcmF3LmdpdGh1YnVzZXJjb250ZW50LmNvbS9zY3Jp
YmUtcHVibGljL3NjcmliZS1jYS9tYWluL3Rlc3QuY3JsMAoGCCqGSM49BAMCA0gA
MEUCIC8F0Lw+wSnlBU1EuQmov8PRERLUqQCX6HYqqwOkeUhAAiEAuBcYLeDNBvox
0JWIsVV58+KNyaNYxHkLQeB41qlEHzI=
-----END CERTIFICATE-----
