Certificate:
    Data:
        Version: 3 (0x2)
        Serial Number:
            e9:aa:f1:0b:33:a2:c5:4f:39:21:7e:3b:0a:6b:83:4d
        Signature Algorithm: ecdsa-with-SHA256
        Issuer: C=IL, ST=Gush Dan, L=Tel Aviv, O=Scribe Security, OU=R&D, CN=Scribe Security CA/emailAddress=noreply@scribesecutiry.com
        Validity
            Not Before: Oct 12 13:37:02 2023 GMT
            Not After : Oct 11 13:37:02 2026 GMT
        Subject: C=IL, ST=Gush Dan, L=Tel Aviv, O=Scribe Security, OU=R&D, CN=ValintTest/emailAddress=noreply@scribesecutiry.com
        Subject Public Key Info:
            Public Key Algorithm: id-ecPublicKey
                Public-Key: (256 bit)
                pub:
                    04:4b:b6:52:12:c0:1a:fc:4d:35:41:70:4b:85:58:
                    29:f9:61:9a:c3:a8:f1:b3:6e:c0:70:2e:a5:67:73:
                    f1:ec:16:19:f4:62:ca:8c:ff:1d:75:82:08:69:97:
                    0b:64:b5:04:c1:72:a9:e5:a5:4a:e9:2b:80:ef:dd:
                    33:84:c6:db:43
                ASN1 OID: prime256v1
                NIST CURVE: P-256
        X509v3 extensions:
            X509v3 Basic Constraints: critical
                CA:FALSE
            X509v3 Subject Key Identifier: 
                93:4A:31:55:46:44:9F:6F:5B:EF:D9:7A:E2:47:82:22:FF:6B:66:9B
            X509v3 Authority Key Identifier: 
                keyid:6A:CF:77:2A:77:4F:89:4D:1C:E5:28:CA:E0:96:87:C3:35:11:36:18
                DirName:/C=IL/ST=Gush Dan/L=Tel Aviv/O=Scribe Security/OU=R&D/CN=Scribe Security Root CA/emailAddress=noreply@scribesecutiry.com
                serial:08:30:1F:49:B7:EE:DB:BC:0C:05:08:85:A6:C1:61:82
            X509v3 Extended Key Usage: 
                Code Signing
            X509v3 Key Usage: 
                Digital Signature
            X509v3 CRL Distribution Points: 
                Full Name:
                  URI:https://raw.githubusercontent.com/scribe-public/scribe-ca/main/scribe_clients.crl
                Full Name:
                  URI:https://raw.githubusercontent.com/scribe-public/scribe-ca/main/test.crl
    Signature Algorithm: ecdsa-with-SHA256
    Signature Value:
        30:44:02:20:79:9e:bb:ab:30:80:64:50:a7:db:f0:ad:3d:2b:
        6c:37:09:b2:28:05:de:91:6f:98:67:f4:32:f3:a9:15:86:96:
        02:20:67:e2:6d:91:70:46:15:88:42:64:55:2b:ac:ac:53:fa:
        59:3b:2c:16:d7:aa:05:4f:62:10:41:cc:5d:3f:50:13
-----BEGIN CERTIFICATE-----
MIIEMDCCA9egAwIBAgIRAOmq8QszosVPOSF+Owprg00wCgYIKoZIzj0EAwIwgaMx
CzAJBgNVBAYTAklMMREwDwYDVQQIDAhHdXNoIERhbjERMA8GA1UEBwwIVGVsIEF2
aXYxGDAWBgNVBAoMD1NjcmliZSBTZWN1cml0eTEMMAoGA1UECwwDUiZEMRswGQYD
VQQDDBJTY3JpYmUgU2VjdXJpdHkgQ0ExKTAnBgkqhkiG9w0BCQEWGm5vcmVwbHlA
c2NyaWJlc2VjdXRpcnkuY29tMB4XDTIzMTAxMjEzMzcwMloXDTI2MTAxMTEzMzcw
MlowgZsxCzAJBgNVBAYTAklMMREwDwYDVQQIDAhHdXNoIERhbjERMA8GA1UEBwwI
VGVsIEF2aXYxGDAWBgNVBAoMD1NjcmliZSBTZWN1cml0eTEMMAoGA1UECwwDUiZE
MRMwEQYDVQQDDApWYWxpbnRUZXN0MSkwJwYJKoZIhvcNAQkBFhpub3JlcGx5QHNj
cmliZXNlY3V0aXJ5LmNvbTBZMBMGByqGSM49AgEGCCqGSM49AwEHA0IABEu2UhLA
GvxNNUFwS4VYKflhmsOo8bNuwHAupWdz8ewWGfRiyoz/HXWCCGmXC2S1BMFyqeWl
SukrgO/dM4TG20OjggHwMIIB7DAMBgNVHRMBAf8EAjAAMB0GA1UdDgQWBBSTSjFV
RkSfb1vv2XriR4Ii/2tmmzCB5AYDVR0jBIHcMIHZgBRqz3cqd0+JTRzlKMrglofD
NRE2GKGBrqSBqzCBqDELMAkGA1UEBhMCSUwxETAPBgNVBAgMCEd1c2ggRGFuMREw
DwYDVQQHDAhUZWwgQXZpdjEYMBYGA1UECgwPU2NyaWJlIFNlY3VyaXR5MQwwCgYD
VQQLDANSJkQxIDAeBgNVBAMMF1NjcmliZSBTZWN1cml0eSBSb290IENBMSkwJwYJ
KoZIhvcNAQkBFhpub3JlcGx5QHNjcmliZXNlY3V0aXJ5LmNvbYIQCDAfSbfu27wM
BQiFpsFhgjATBgNVHSUEDDAKBggrBgEFBQcDAzALBgNVHQ8EBAMCB4AwgbMGA1Ud
HwSBqzCBqDBXoFWgU4ZRaHR0cHM6Ly9yYXcuZ2l0aHVidXNlcmNvbnRlbnQuY29t
L3NjcmliZS1wdWJsaWMvc2NyaWJlLWNhL21haW4vc2NyaWJlX2NsaWVudHMuY3Js
ME2gS6BJhkdodHRwczovL3Jhdy5naXRodWJ1c2VyY29udGVudC5jb20vc2NyaWJl
LXB1YmxpYy9zY3JpYmUtY2EvbWFpbi90ZXN0LmNybDAKBggqhkjOPQQDAgNHADBE
AiB5nrurMIBkUKfb8K09K2w3CbIoBd6Rb5hn9DLzqRWGlgIgZ+JtkXBGFYhCZFUr
rKxT+lk7LBbXqgVPYhBBzF0/UBM=
-----END CERTIFICATE-----
